target datalayout = "e-m:e-p270:32:32-p271:32:32-p272:64:64-i64:64-i128:128-f80:128-n8:16:32:64-S128"
target triple = "x86_64-pc-linux-gnu"

%struct.sockaddr_un = type { i16, [108 x i8] }

@stderr = external global ptr, align 8
@.str.38 = private unnamed_addr constant [5 x i8] c"Main\00", align 1
@.str.39 = private unnamed_addr constant [16 x i8] c"sharkd_daemon.c\00", align 1
@__func__.socket_init = private unnamed_addr constant [12 x i8] c"socket_init\00", align 1
@.str.40 = private unnamed_addr constant [10 x i8] c"ERROR: %s\00", align 1
@.str.41 = private unnamed_addr constant [3 x i8] c"%s\00", align 1
@.str.42 = private unnamed_addr constant [6 x i8] c"unix:\00", align 1
@.str.43 = private unnamed_addr constant [23 x i8] c"Socket path too long.\0A\00", align 1
@.str.44 = private unnamed_addr constant [29 x i8] c"Failed to create socket: %s\0A\00", align 1
@.str.45 = private unnamed_addr constant [27 x i8] c"Failed to bind socket: %s\0A\00", align 1
@.str.46 = private unnamed_addr constant [5 x i8] c"tcp:\00", align 1
@.str.47 = private unnamed_addr constant [79 x i8] c"TCP sockets are not available for security reasons, use Unix sockets instead.\0A\00", align 1
@.str.48 = private unnamed_addr constant [61 x i8] c"Unsupported socket path '%s', try unix:... for Unix sockets\0A\00", align 1
@.str.49 = private unnamed_addr constant [32 x i8] c"Failed to listen on socket: %s\0A\00", align 1

; Function Attrs: alwaysinline nounwind
define internal ptr @memset.inline(ptr %0, i32 %1, i64 %2) #7 {
  %4 = alloca ptr, align 8
  %5 = alloca i32, align 4
  %6 = alloca i64, align 8
  store ptr %0, ptr %4, align 8
  store i32 %1, ptr %5, align 4
  store i64 %2, ptr %6, align 8
  %7 = load ptr, ptr %4, align 8
  %8 = load i32, ptr %5, align 4
  %9 = load i64, ptr %6, align 8
  %10 = load ptr, ptr %4, align 8
  %11 = call i64 @llvm.objectsize.i64.p0(ptr %10, i1 false, i1 true, i1 true)
  %12 = call ptr @__memset_chk(ptr noundef %7, i32 noundef %8, i64 noundef %9, i64 noundef %11) #9
  ret ptr %12
}

; Function Attrs: null_pointer_is_valid sspstrong uwtable
define internal i32 @socket_init(ptr noundef %0) #0 {
  %2 = alloca i32, align 4
  %3 = alloca ptr, align 8
  %4 = alloca i32, align 4
  %5 = alloca ptr, align 8
  %6 = alloca i32, align 4
  %7 = alloca %struct.sockaddr_un, align 2
  %8 = alloca i32, align 4
  store ptr %0, ptr %3, align 8
  call void @llvm.lifetime.start.p0(i64 4, ptr %4) #9
  store i32 -1, ptr %4, align 4
  call void @llvm.lifetime.start.p0(i64 8, ptr %5) #9
  %9 = call ptr @ws_init_sockets()
  store ptr %9, ptr %5, align 8
  %10 = load ptr, ptr %5, align 8
  %11 = icmp ne ptr %10, null
  br i1 %11, label %12, label %23

12:                                               ; preds = %1
  br label %13

13:                                               ; preds = %12
  %14 = load ptr, ptr %5, align 8
  call void (ptr, i32, ptr, i64, ptr, ptr, ...) @ws_log_full(ptr noundef @.str.38, i32 noundef 5, ptr noundef @.str.39, i64 noundef 70, ptr noundef @__func__.socket_init, ptr noundef @.str.40, ptr noundef %14)
  br label %15

15:                                               ; preds = %13
  br label %16

16:                                               ; preds = %15
  %17 = load ptr, ptr %5, align 8
  call void @g_free(ptr noundef %17)
  br label %18

18:                                               ; preds = %16
  %19 = call ptr @please_report_bug()
  call void (ptr, i32, ptr, i64, ptr, ptr, ...) @ws_log_full(ptr noundef @.str.38, i32 noundef 5, ptr noundef @.str.39, i64 noundef 72, ptr noundef @__func__.socket_init, ptr noundef @.str.41, ptr noundef %19)
  br label %20

20:                                               ; preds = %18
  br label %21

21:                                               ; preds = %20
  %22 = load i32, ptr %4, align 4
  store i32 %22, ptr %2, align 4
  store i32 1, ptr %6, align 4
  br label %109

23:                                               ; preds = %1
  %24 = load ptr, ptr %3, align 8
  %25 = call i32 @strncmp(ptr noundef %24, ptr noundef @.str.42, i64 noundef 5) #10
  %26 = icmp ne i32 %25, 0
  br i1 %26, label %84, label %27

27:                                               ; preds = %23
  call void @llvm.lifetime.start.p0(i64 110, ptr %7) #9
  call void @llvm.lifetime.start.p0(i64 4, ptr %8) #9
  %28 = load ptr, ptr %3, align 8
  %29 = getelementptr i8, ptr %28, i64 5
  store ptr %29, ptr %3, align 8
  %30 = load ptr, ptr %3, align 8
  %31 = call i64 @strlen(ptr noundef %30) #10
  %32 = add i64 %31, 1
  %33 = icmp ugt i64 %32, 108
  br i1 %33, label %34, label %37

34:                                               ; preds = %27
  %35 = load ptr, ptr @stderr, align 8
  %36 = call i32 @fputs(ptr noundef @.str.43, ptr noundef %35)
  store i32 -1, ptr %2, align 4
  store i32 1, ptr %6, align 4
  br label %81

37:                                               ; preds = %27
  %38 = call i32 @socket(i32 noundef 1, i32 noundef 1, i32 noundef 0) #9
  store i32 %38, ptr %4, align 4
  %39 = load i32, ptr %4, align 4
  %40 = icmp eq i32 %39, -1
  br i1 %40, label %41, label %47

41:                                               ; preds = %37
  %42 = load ptr, ptr @stderr, align 8
  %43 = call ptr @__errno_location() #12
  %44 = load i32, ptr %43, align 4
  %45 = call ptr @g_strerror(i32 noundef %44) #12
  %46 = call i32 (ptr, i32, ptr, ...) @__fprintf_chk(ptr noundef %42, i32 noundef 2, ptr noundef @.str.44, ptr noundef %45)
  store i32 -1, ptr %2, align 4
  store i32 1, ptr %6, align 4
  br label %81

47:                                               ; preds = %37
  %48 = call ptr @memset.inline(ptr noundef %7, i32 noundef 0, i64 noundef 110) #9
  %49 = getelementptr inbounds nuw %struct.sockaddr_un, ptr %7, i32 0, i32 0
  store i16 1, ptr %49, align 2
  %50 = getelementptr inbounds nuw %struct.sockaddr_un, ptr %7, i32 0, i32 1
  %51 = getelementptr inbounds [108 x i8], ptr %50, i64 0, i64 0
  %52 = load ptr, ptr %3, align 8
  %53 = call i64 @g_strlcpy(ptr noundef %51, ptr noundef %52, i64 noundef 108)
  %54 = getelementptr inbounds nuw %struct.sockaddr_un, ptr %7, i32 0, i32 1
  %55 = getelementptr inbounds [108 x i8], ptr %54, i64 0, i64 0
  %56 = call i64 @strlen(ptr noundef %55) #10
  %57 = add i64 2, %56
  %58 = trunc i64 %57 to i32
  store i32 %58, ptr %8, align 4
  %59 = getelementptr inbounds nuw %struct.sockaddr_un, ptr %7, i32 0, i32 1
  %60 = getelementptr [108 x i8], ptr %59, i64 0, i64 0
  %61 = load i8, ptr %60, align 2
  %62 = sext i8 %61 to i32
  %63 = icmp eq i32 %62, 64
  br i1 %63, label %64, label %67

64:                                               ; preds = %47
  %65 = getelementptr inbounds nuw %struct.sockaddr_un, ptr %7, i32 0, i32 1
  %66 = getelementptr [108 x i8], ptr %65, i64 0, i64 0
  store i8 0, ptr %66, align 2
  br label %67

67:                                               ; preds = %64, %47
  %68 = load i32, ptr %4, align 4
  %69 = load i32, ptr %8, align 4
  %70 = call i32 @bind(i32 noundef %68, ptr noundef %7, i32 noundef %69) #9
  %71 = icmp ne i32 %70, 0
  br i1 %71, label %72, label %80

72:                                               ; preds = %67
  %73 = load ptr, ptr @stderr, align 8
  %74 = call ptr @__errno_location() #12
  %75 = load i32, ptr %74, align 4
  %76 = call ptr @g_strerror(i32 noundef %75) #12
  %77 = call i32 (ptr, i32, ptr, ...) @__fprintf_chk(ptr noundef %73, i32 noundef 2, ptr noundef @.str.45, ptr noundef %76)
  %78 = load i32, ptr %4, align 4
  %79 = call i32 @close(i32 noundef %78)
  store i32 -1, ptr %2, align 4
  store i32 1, ptr %6, align 4
  br label %81

80:                                               ; preds = %67
  store i32 0, ptr %6, align 4
  br label %81

81:                                               ; preds = %80, %72, %41, %34
  call void @llvm.lifetime.end.p0(i64 4, ptr %8) #9
  call void @llvm.lifetime.end.p0(i64 110, ptr %7) #9
  %82 = load i32, ptr %6, align 4
  switch i32 %82, label %109 [
    i32 0, label %83
  ]

83:                                               ; preds = %81
  br label %95

84:                                               ; preds = %23
  %85 = load ptr, ptr %3, align 8
  %86 = call i32 @strncmp(ptr noundef %85, ptr noundef @.str.46, i64 noundef 4) #10
  %87 = icmp ne i32 %86, 0
  br i1 %87, label %91, label %88

88:                                               ; preds = %84
  %89 = load ptr, ptr @stderr, align 8
  %90 = call i32 @fputs(ptr noundef @.str.47, ptr noundef %89)
  store i32 -1, ptr %2, align 4
  store i32 1, ptr %6, align 4
  br label %109

91:                                               ; preds = %84
  %92 = load ptr, ptr @stderr, align 8
  %93 = load ptr, ptr %3, align 8
  %94 = call i32 (ptr, i32, ptr, ...) @__fprintf_chk(ptr noundef %92, i32 noundef 2, ptr noundef @.str.48, ptr noundef %93)
  store i32 -1, ptr %2, align 4
  store i32 1, ptr %6, align 4
  br label %109

95:                                               ; preds = %83
  %96 = load i32, ptr %4, align 4
  %97 = call i32 @listen(i32 noundef %96, i32 noundef 4096) #9
  %98 = icmp ne i32 %97, 0
  br i1 %98, label %99, label %107

99:                                               ; preds = %95
  %100 = load ptr, ptr @stderr, align 8
  %101 = call ptr @__errno_location() #12
  %102 = load i32, ptr %101, align 4
  %103 = call ptr @g_strerror(i32 noundef %102) #12
  %104 = call i32 (ptr, i32, ptr, ...) @__fprintf_chk(ptr noundef %100, i32 noundef 2, ptr noundef @.str.49, ptr noundef %103)
  %105 = load i32, ptr %4, align 4
  %106 = call i32 @close(i32 noundef %105)
  store i32 -1, ptr %2, align 4
  store i32 1, ptr %6, align 4
  br label %109

107:                                              ; preds = %95
  %108 = load i32, ptr %4, align 4
  store i32 %108, ptr %2, align 4
  store i32 1, ptr %6, align 4
  br label %109

109:                                              ; preds = %107, %99, %91, %88, %81, %21
  call void @llvm.lifetime.end.p0(i64 8, ptr %5) #9
  call void @llvm.lifetime.end.p0(i64 4, ptr %4) #9
  %110 = load i32, ptr %2, align 4
  ret i32 %110
}