; Function Attrs: null_pointer_is_valid sspstrong uwtable
define internal fastcc i32 @socket_init(ptr noundef %0) unnamed_addr #0 {
  %2 = alloca %struct.sockaddr_un, align 2
  %3 = tail call ptr @ws_init_sockets()
  %.not = icmp eq ptr %3, null
  br i1 %.not, label %6, label %4

4:                                                ; preds = %1
  tail call void (ptr, i32, ptr, i64, ptr, ptr, ...) @ws_log_full(ptr noundef nonnull @.str.38, i32 noundef 5, ptr noundef nonnull @.str.39, i64 noundef 70, ptr noundef nonnull @__func__.socket_init, ptr noundef nonnull @.str.40, ptr noundef nonnull %3)
  tail call void @g_free(ptr noundef nonnull %3)
  %5 = tail call ptr @please_report_bug()
  tail call void (ptr, i32, ptr, i64, ptr, ptr, ...) @ws_log_full(ptr noundef nonnull @.str.38, i32 noundef 5, ptr noundef nonnull @.str.39, i64 noundef 72, ptr noundef nonnull @__func__.socket_init, ptr noundef nonnull @.str.41, ptr noundef %5)
  br label %60

6:                                                ; preds = %1
  %7 = tail call i32 @strncmp(ptr noundef %0, ptr noundef nonnull dereferenceable(6) @.str.42, i64 noundef 5) #13
  %.not22 = icmp eq i32 %7, 0
  br i1 %.not22, label %8, label %44

8:                                                ; preds = %6
  call void @llvm.lifetime.start.p0(i64 110, ptr nonnull %2) #10
  %9 = getelementptr i8, ptr %0, i64 5
  %10 = tail call i64 @strlen(ptr noundef %9) #13
  %11 = add i64 %10, -108
  %12 = icmp ult i64 %11, -109
  br i1 %12, label %13, label %16

13:                                               ; preds = %8
  %14 = load ptr, ptr @stderr, align 8
  %15 = tail call i64 @fwrite(ptr nonnull @.str.43, i64 22, i64 1, ptr %14) #14
  br label %.thread

16:                                               ; preds = %8
  %17 = tail call i32 @socket(i32 noundef 1, i32 noundef 1, i32 noundef 0) #10
  %18 = icmp eq i32 %17, -1
  br i1 %18, label %19, label %25

19:                                               ; preds = %16
  %20 = load ptr, ptr @stderr, align 8
  %21 = tail call ptr @__errno_location() #12
  %22 = load i32, ptr %21, align 4
  %23 = tail call ptr @g_strerror(i32 noundef %22) #12
  %24 = tail call i32 (ptr, i32, ptr, ...) @__fprintf_chk(ptr noundef %20, i32 noundef 2, ptr noundef nonnull @.str.44, ptr noundef %23)
  br label %.thread

25:                                               ; preds = %16
  %26 = getelementptr inbounds nuw i8, ptr %2, i64 2
  call void @llvm.memset.p0.i64(ptr noundef nonnull align 2 dereferenceable(110) %26, i8 noundef 0, i64 noundef 108, i1 noundef false) #10
  store i16 1, ptr %2, align 2
  %27 = getelementptr inbounds nuw i8, ptr %2, i64 2
  %28 = call i64 @g_strlcpy(ptr noundef nonnull %27, ptr noundef %9, i64 noundef 108)
  %29 = call i64 @strlen(ptr noundef nonnull dereferenceable(1) %27) #13
  %30 = trunc i64 %29 to i32
  %31 = add i32 %30, 2
  %32 = load i8, ptr %27, align 2
  %33 = icmp eq i8 %32, 64
  br i1 %33, label %34, label %35

34:                                               ; preds = %25
  store i8 0, ptr %27, align 2
  br label %35

35:                                               ; preds = %34, %25
  %36 = call i32 @bind(i32 noundef %17, ptr noundef nonnull %2, i32 noundef %31) #10
  %.not23 = icmp eq i32 %36, 0
  br i1 %.not23, label %51, label %37

37:                                               ; preds = %35
  %38 = load ptr, ptr @stderr, align 8
  %39 = tail call ptr @__errno_location() #12
  %40 = load i32, ptr %39, align 4
  %41 = call ptr @g_strerror(i32 noundef %40) #12
  %42 = call i32 (ptr, i32, ptr, ...) @__fprintf_chk(ptr noundef %38, i32 noundef 2, ptr noundef nonnull @.str.45, ptr noundef %41)
  %43 = call i32 @close(i32 noundef %17)
  br label %.thread

.thread:                                          ; preds = %13, %19, %37
  call void @llvm.lifetime.end.p0(i64 110, ptr nonnull %2) #10
  br label %60

44:                                               ; preds = %6
  %45 = tail call i32 @strncmp(ptr noundef %0, ptr noundef nonnull dereferenceable(5) @.str.46, i64 noundef 4) #13
  %.not25 = icmp eq i32 %45, 0
  %46 = load ptr, ptr @stderr, align 8
  br i1 %.not25, label %47, label %49

47:                                               ; preds = %44
  %48 = tail call i64 @fwrite(ptr nonnull @.str.47, i64 78, i64 1, ptr %46) #14
  br label %60

49:                                               ; preds = %44
  %50 = tail call i32 (ptr, i32, ptr, ...) @__fprintf_chk(ptr noundef %46, i32 noundef 2, ptr noundef nonnull @.str.48, ptr noundef %0)
  br label %60

51:                                               ; preds = %35
  call void @llvm.lifetime.end.p0(i64 110, ptr nonnull %2) #10
  %52 = call i32 @listen(i32 noundef %17, i32 noundef 4096) #10
  %.not24 = icmp eq i32 %52, 0
  br i1 %.not24, label %60, label %53

53:                                               ; preds = %51
  %54 = load ptr, ptr @stderr, align 8
  %55 = tail call ptr @__errno_location() #12
  %56 = load i32, ptr %55, align 4
  %57 = call ptr @g_strerror(i32 noundef %56) #12
  %58 = call i32 (ptr, i32, ptr, ...) @__fprintf_chk(ptr noundef %54, i32 noundef 2, ptr noundef nonnull @.str.49, ptr noundef %57)
  %59 = call i32 @close(i32 noundef %17)
  br label %60

60:                                               ; preds = %.thread, %51, %53, %49, %47, %4
  %.0 = phi i32 [ -1, %4 ], [ -1, %49 ], [ -1, %47 ], [ -1, %53 ], [ %17, %51 ], [ -1, %.thread ]
  ret i32 %.0
}